target datalayout = "e-m:e-p270:32:32-p271:32:32-p272:64:64-i64:64-i128:128-f80:128-n8:16:32:64-S128"
target triple = "x86_64-pc-linux-gnu"

%struct._VAConfigAttrib = type { i32, i32 }
%struct.AVCodecContext = type { ptr, i32, i32, ptr, i32, i32, ptr, ptr, ptr, i64, i32, i32, ptr, i32, %struct.AVRational, %struct.AVRational, %struct.AVRational, i32, i32, i32, i32, i32, %struct.AVRational, i32, i32, i32, i32, i32, i32, i32, i32, i32, i32, i32, ptr, ptr, i32, float, float, float, float, float, float, float, float, float, i32, i32, i32, i32, i32, i32, i32, i32, i32, i32, i32, i32, ptr, ptr, ptr, i32, i32, i32, i32, i32, i32, i32, i32, i32, i32, %struct.AVChannelLayout, i32, i32, i32, i32, i32, i32, i32, i32, ptr, i32, i32, i32, float, float, i32, i32, i32, i32, i32, ptr, i64, i64, float, float, i32, i32, ptr, ptr, i32, i32, i32, i32, i32, ptr, ptr, ptr, ptr, i32, i32, [8 x i64], i32, i32, i32, i32, i32, i32, i32, ptr, ptr, i32, i32, i32, i32, i32, i32, i32, i32, i32, i32, ptr, ptr, i32, i32, ptr, ptr, ptr, ptr, i32, i32, i64, i32, i32, i64, ptr, i64, ptr, i32, ptr, i32 }
%struct.AVRational = type { i32, i32 }
%struct.AVChannelLayout = type { i32, i32, %union.anon.1, ptr }
%union.anon.1 = type { i64 }
%struct.VAAPIEncodeContext = type { %struct.FFHWBaseEncodeContext, ptr, i32, i32, i32, i32, i32, i32, ptr, ptr, i32, i32, i32, i32, i32, i32, [4 x %struct._VAConfigAttrib], i32, i32, i32, ptr, ptr, [4 x i32], [4 x ptr], [4 x i64], i32, %struct._VAEncMiscParameterRateControl, %struct._VAEncMiscParameterHRD, %struct._VAEncMiscParameterFrameRate, %struct._VAEncMiscParameterBufferMaxFrameSize, %struct._VAEncMiscParameterBufferQualityLevel, ptr, ptr, i32, i32, i32, i32, i32, i32, [20 x i32], [22 x i32], [21 x i32], [23 x i32], i32, i32, ptr, i32, i32 }
%struct.FFHWBaseEncodeContext = type { ptr, ptr, ptr, i32, i32, i32, i32, i32, i32, ptr, ptr, ptr, ptr, ptr, ptr, ptr, ptr, [2 x ptr], i32, i64, i64, i64, i64, i64, i64, i64, [112 x i64], i32, i32, i32, i32, i32, i32, i32, i32, i32, i32, i32, i32, i32, i32, i32, i32, ptr, i32, ptr, i32, ptr }
%struct._VAEncMiscParameterRateControl = type { i32, i32, i32, i32, i32, i32, %union.anon.2, i32, i32, i32, i32, [4 x i32] }
%union.anon.2 = type { %struct.anon }
%struct.anon = type { i32 }
%struct._VAEncMiscParameterHRD = type { i32, i32, [4 x i32] }
%struct._VAEncMiscParameterFrameRate = type { i32, %union.anon.3, [4 x i32] }
%union.anon.3 = type { %struct.anon.4 }
%struct.anon.4 = type { i32 }
%struct._VAEncMiscParameterBufferMaxFrameSize = type { i32, i32, [4 x i32] }
%struct._VAEncMiscParameterBufferQualityLevel = type { i32, [4 x i32] }
%struct.VAAPIEncodeAV1Context = type { %struct.VAAPIEncodeContext, %struct.AV1RawOBU, %struct.AV1RawOBU, [4 x %struct.AV1RawOBU], i32, ptr, %struct.CodedBitstreamFragment, %union._VAConfigAttribValEncAV1, %union._VAConfigAttribValEncAV1Ext1, %union._VAConfigAttribValEncAV1Ext2, [1024 x i8], i64, [1024 x i8], i64, i8, i8, i32, i32, i32, i32, i32, i32, [64 x i8], [64 x i8], i32, i32, i32, i32, i32, i32, i32, i32, i32, i32, i32, i32, i32, i32, i32, i32, i32 }
%struct.AV1RawOBU = type { %struct.AV1RawOBUHeader, i64, %union.anon.5 }
%struct.AV1RawOBUHeader = type { i8, i8, i8, i8, i8, i8, i8, i8 }
%union.anon.5 = type { %struct.AV1RawMetadata }
%struct.AV1RawMetadata = type { i64, %union.anon.6 }
%union.anon.6 = type { %struct.AV1RawMetadataITUTT35, [2800 x i8] }
%struct.AV1RawMetadataITUTT35 = type { i8, i8, ptr, ptr, i64 }
%struct.CodedBitstreamFragment = type { ptr, i64, i64, ptr, i32, i32, ptr }
%union._VAConfigAttribValEncAV1 = type { %struct.anon.7 }
%struct.anon.7 = type { i32 }
%union._VAConfigAttribValEncAV1Ext1 = type { %struct.anon.8 }
%struct.anon.8 = type { i32 }
%union._VAConfigAttribValEncAV1Ext2 = type { %struct.anon.9 }
%struct.anon.9 = type { i32 }

; Function Attrs: cold nounwind optsize uwtable
define internal i32 @vaapi_encode_av1_get_encoder_caps(ptr noundef %0) #0 {
  %2 = alloca ptr, align 8
  %3 = alloca ptr, align 8
  %4 = alloca ptr, align 8
  store ptr %0, ptr %2, align 8, !tbaa !4
  call void @llvm.lifetime.start.p0(i64 8, ptr %3) #12
  %5 = load ptr, ptr %2, align 8, !tbaa !4
  %6 = getelementptr inbounds nuw %struct.AVCodecContext, ptr %5, i32 0, i32 6
  %7 = load ptr, ptr %6, align 8, !tbaa !9
  store ptr %7, ptr %3, align 8, !tbaa !101
  call void @llvm.lifetime.start.p0(i64 8, ptr %4) #12
  %8 = load ptr, ptr %2, align 8, !tbaa !4
  %9 = getelementptr inbounds nuw %struct.AVCodecContext, ptr %8, i32 0, i32 6
  %10 = load ptr, ptr %9, align 8, !tbaa !9
  store ptr %10, ptr %4, align 8, !tbaa !31
  %11 = load ptr, ptr %2, align 8, !tbaa !4
  %12 = getelementptr inbounds nuw %struct.AVCodecContext, ptr %11, i32 0, i32 18
  %13 = load i32, ptr %12, align 8, !tbaa !80
  %14 = load ptr, ptr %4, align 8, !tbaa !31
  %15 = getelementptr inbounds nuw %struct.VAAPIEncodeAV1Context, ptr %14, i32 0, i32 15
  %16 = load i8, ptr %15, align 1, !tbaa !82
  %17 = zext i8 %16 to i32
  %18 = icmp ne i32 %17, 0
  %19 = select i1 %18, i32 128, i32 64
  %20 = add nsw i32 %13, %19
  %21 = sub nsw i32 %20, 1
  %22 = load ptr, ptr %4, align 8, !tbaa !31
  %23 = getelementptr inbounds nuw %struct.VAAPIEncodeAV1Context, ptr %22, i32 0, i32 15
  %24 = load i8, ptr %23, align 1, !tbaa !82
  %25 = zext i8 %24 to i32
  %26 = icmp ne i32 %25, 0
  %27 = select i1 %26, i32 128, i32 64
  %28 = sub nsw i32 %27, 1
  %29 = xor i32 %28, -1
  %30 = and i32 %21, %29
  %31 = load ptr, ptr %3, align 8, !tbaa !101
  %32 = getelementptr inbounds nuw %struct.FFHWBaseEncodeContext, ptr %31, i32 0, i32 5
  store i32 %30, ptr %32, align 8, !tbaa !103
  %33 = load ptr, ptr %2, align 8, !tbaa !4
  %34 = getelementptr inbounds nuw %struct.AVCodecContext, ptr %33, i32 0, i32 19
  %35 = load i32, ptr %34, align 4, !tbaa !81
  %36 = load ptr, ptr %4, align 8, !tbaa !31
  %37 = getelementptr inbounds nuw %struct.VAAPIEncodeAV1Context, ptr %36, i32 0, i32 15
  %38 = load i8, ptr %37, align 1, !tbaa !82
  %39 = zext i8 %38 to i32
  %40 = icmp ne i32 %39, 0
  %41 = select i1 %40, i32 128, i32 64
  %42 = add nsw i32 %35, %41
  %43 = sub nsw i32 %42, 1
  %44 = load ptr, ptr %4, align 8, !tbaa !31
  %45 = getelementptr inbounds nuw %struct.VAAPIEncodeAV1Context, ptr %44, i32 0, i32 15
  %46 = load i8, ptr %45, align 1, !tbaa !82
  %47 = zext i8 %46 to i32
  %48 = icmp ne i32 %47, 0
  %49 = select i1 %48, i32 128, i32 64
  %50 = sub nsw i32 %49, 1
  %51 = xor i32 %50, -1
  %52 = and i32 %43, %51
  %53 = load ptr, ptr %3, align 8, !tbaa !101
  %54 = getelementptr inbounds nuw %struct.FFHWBaseEncodeContext, ptr %53, i32 0, i32 6
  store i32 %52, ptr %54, align 4, !tbaa !104
  call void @llvm.lifetime.end.p0(i64 8, ptr %4) #12
  call void @llvm.lifetime.end.p0(i64 8, ptr %3) #12
  ret i32 0
}