; Function Attrs: cold mustprogress nofree norecurse nosync nounwind optsize willreturn memory(readwrite, inaccessiblemem: none) uwtable
define internal noundef i32 @vaapi_encode_av1_get_encoder_caps(ptr noundef readonly captures(none) %0) #3 {
  %2 = getelementptr inbounds nuw i8, ptr %0, i64 32
  %3 = load ptr, ptr %2, align 8, !tbaa !4
  %4 = getelementptr inbounds nuw i8, ptr %0, i64 112
  %5 = load i32, ptr %4, align 8, !tbaa !73
  %6 = getelementptr inbounds nuw i8, ptr %3, i64 21257
  %7 = load i8, ptr %6, align 1, !tbaa !75
  %.not = icmp eq i8 %7, 0
  %.neg = select i1 %.not, i32 -64, i32 -128
  %8 = select i1 %.not, i32 63, i32 127
  %9 = add i32 %8, %5
  %10 = and i32 %9, %.neg
  %11 = getelementptr inbounds nuw i8, ptr %3, i64 32
  store i32 %10, ptr %11, align 8, !tbaa !94
  %12 = getelementptr inbounds nuw i8, ptr %0, i64 116
  %13 = load i32, ptr %12, align 4, !tbaa !74
  %14 = add i32 %8, %13
  %15 = and i32 %14, %.neg
  %16 = getelementptr inbounds nuw i8, ptr %3, i64 36
  store i32 %15, ptr %16, align 4, !tbaa !95
  ret i32 0
}